target datalayout = "e-m:e-p270:32:32-p271:32:32-p272:64:64-i64:64-i128:128-f80:128-n8:16:32:64-S128"
target triple = "x86_64-pc-linux-gnu"

; Function Attrs: mustprogress uwtable
define noundef ptr @_ZN7rocksdb20WriteUnpreparedTxnDB16BeginTransactionERKNS_12WriteOptionsERKNS_18TransactionOptionsEPNS_11TransactionE(ptr noundef nonnull align 8 dereferenceable(1392) %0, ptr noundef nonnull align 8 dereferenceable(25) %1, ptr noundef nonnull align 8 dereferenceable(58) %2, ptr noundef %3) unnamed_addr #5 align 2 personality ptr @__gxx_personality_v0 {
  %5 = alloca ptr, align 8
  %6 = alloca ptr, align 8
  %7 = alloca ptr, align 8
  %8 = alloca ptr, align 8
  %9 = alloca ptr, align 8
  %10 = alloca ptr, align 8
  %11 = alloca i32, align 4
  store ptr %0, ptr %6, align 8, !tbaa !52
  store ptr %1, ptr %7, align 8, !tbaa !169
  store ptr %2, ptr %8, align 8, !tbaa !410
  store ptr %3, ptr %9, align 8, !tbaa !274
  %12 = load ptr, ptr %6, align 8
  %13 = load ptr, ptr %9, align 8, !tbaa !274
  %14 = icmp ne ptr %13, null
  br i1 %14, label %15, label %20

15:                                               ; preds = %4
  %16 = load ptr, ptr %9, align 8, !tbaa !274
  %17 = load ptr, ptr %7, align 8, !tbaa !169
  %18 = load ptr, ptr %8, align 8, !tbaa !410
  call void @_ZN7rocksdb24PessimisticTransactionDB23ReinitializeTransactionEPNS_11TransactionERKNS_12WriteOptionsERKNS_18TransactionOptionsE(ptr noundef nonnull align 8 dereferenceable(520) %12, ptr noundef %16, ptr noundef nonnull align 8 dereferenceable(25) %17, ptr noundef nonnull align 8 dereferenceable(58) %18)
  %19 = load ptr, ptr %9, align 8, !tbaa !274
  store ptr %19, ptr %5, align 8
  br label %29

20:                                               ; preds = %4
  %21 = call noalias noundef nonnull ptr @_Znwm(i64 noundef 848) #23
  %22 = load ptr, ptr %7, align 8, !tbaa !169
  %23 = load ptr, ptr %8, align 8, !tbaa !410
  invoke void @_ZN7rocksdb18WriteUnpreparedTxnC1EPNS_20WriteUnpreparedTxnDBERKNS_12WriteOptionsERKNS_18TransactionOptionsE(ptr noundef nonnull align 8 dereferenceable(848) %21, ptr noundef %12, ptr noundef nonnull align 8 dereferenceable(25) %22, ptr noundef nonnull align 8 dereferenceable(58) %23)
          to label %24 unwind label %25

24:                                               ; preds = %20
  store ptr %21, ptr %5, align 8
  br label %29

25:                                               ; preds = %20
  %26 = landingpad { ptr, i32 }
          cleanup
  %27 = extractvalue { ptr, i32 } %26, 0
  store ptr %27, ptr %10, align 8
  %28 = extractvalue { ptr, i32 } %26, 1
  store i32 %28, ptr %11, align 4
  call void @_ZdlPvm(ptr noundef %21, i64 noundef 848) #24
  br label %31

29:                                               ; preds = %24, %15
  %30 = load ptr, ptr %5, align 8
  ret ptr %30

31:                                               ; preds = %25
  %32 = load ptr, ptr %10, align 8
  %33 = load i32, ptr %11, align 4
  %34 = insertvalue { ptr, i32 } poison, ptr %32, 0
  %35 = insertvalue { ptr, i32 } %34, i32 %33, 1
  resume { ptr, i32 } %35
}