; Function Attrs: mustprogress uwtable
define noundef nonnull ptr @_ZN7rocksdb20WriteUnpreparedTxnDB16BeginTransactionERKNS_12WriteOptionsERKNS_18TransactionOptionsEPNS_11TransactionE(ptr noundef nonnull align 8 dereferenceable(1392) %0, ptr noundef nonnull align 8 dereferenceable(25) %1, ptr noundef nonnull align 8 dereferenceable(58) %2, ptr noundef %3) unnamed_addr #4 align 2 personality ptr @__gxx_personality_v0 {
  %.not = icmp eq ptr %3, null
  br i1 %.not, label %6, label %5

5:                                                ; preds = %4
  tail call void @_ZN7rocksdb24PessimisticTransactionDB23ReinitializeTransactionEPNS_11TransactionERKNS_12WriteOptionsERKNS_18TransactionOptionsE(ptr noundef nonnull align 8 dereferenceable(520) %0, ptr noundef nonnull %3, ptr noundef nonnull align 8 dereferenceable(25) %1, ptr noundef nonnull align 8 dereferenceable(58) %2)
  br label %10

6:                                                ; preds = %4
  %7 = tail call noalias noundef nonnull dereferenceable(848) ptr @_Znwm(i64 noundef 848) #29
  invoke void @_ZN7rocksdb18WriteUnpreparedTxnC1EPNS_20WriteUnpreparedTxnDBERKNS_12WriteOptionsERKNS_18TransactionOptionsE(ptr noundef nonnull align 8 dereferenceable(848) %7, ptr noundef nonnull %0, ptr noundef nonnull align 8 dereferenceable(25) %1, ptr noundef nonnull align 8 dereferenceable(58) %2)
          to label %10 unwind label %8

8:                                                ; preds = %6
  %9 = landingpad { ptr, i32 }
          cleanup
  tail call void @_ZdlPvm(ptr noundef nonnull %7, i64 noundef 848) #25
  resume { ptr, i32 } %9

10:                                               ; preds = %6, %5
  %.0 = phi ptr [ %3, %5 ], [ %7, %6 ]
  ret ptr %.0
}